target datalayout = "e-m:e-p270:32:32-p271:32:32-p272:64:64-i64:64-i128:128-f80:128-n8:16:32:64-S128"
target triple = "x86_64-pc-linux-gnu"

@.str.212 = private unnamed_addr constant [5 x i8] c"USER\00", align 1

; Function Attrs: nounwind sspstrong uwtable
define internal i64 @etc_getlogin(i64 noundef %0) #0 {
  %2 = alloca i64, align 8
  %3 = alloca i64, align 8
  %4 = alloca ptr, align 8
  %5 = alloca ptr, align 8
  %6 = alloca i32, align 4
  store i64 %0, ptr %3, align 8, !tbaa !6
  call void @llvm.lifetime.start.p0(i64 8, ptr %4) #19
  %7 = call ptr @getlogin()
  store ptr %7, ptr %4, align 8, !tbaa !10
  %8 = load ptr, ptr %4, align 8, !tbaa !10
  %9 = icmp ne ptr %8, null
  br i1 %9, label %12, label %10

10:                                               ; preds = %1
  %11 = call ptr @getenv(ptr noundef @.str.212) #19
  store ptr %11, ptr %4, align 8, !tbaa !10
  br label %12

12:                                               ; preds = %10, %1
  %13 = load ptr, ptr %4, align 8, !tbaa !10
  %14 = icmp ne ptr %13, null
  br i1 %14, label %15, label %22

15:                                               ; preds = %12
  call void @llvm.lifetime.start.p0(i64 8, ptr %5) #19
  %16 = call ptr @rb_locale_encoding()
  store ptr %16, ptr %5, align 8, !tbaa !13
  %17 = load ptr, ptr %4, align 8, !tbaa !10
  %18 = load ptr, ptr %4, align 8, !tbaa !10
  %19 = call i64 @strlen(ptr noundef %18) #21
  %20 = load ptr, ptr %5, align 8, !tbaa !13
  %21 = call i64 @rb_external_str_new_with_enc(ptr noundef %17, i64 noundef %19, ptr noundef %20)
  store i64 %21, ptr %2, align 8
  store i32 1, ptr %6, align 4
  call void @llvm.lifetime.end.p0(i64 8, ptr %5) #19
  br label %23

22:                                               ; preds = %12
  store i64 4, ptr %2, align 8
  store i32 1, ptr %6, align 4
  br label %23

23:                                               ; preds = %22, %15
  call void @llvm.lifetime.end.p0(i64 8, ptr %4) #19
  %24 = load i64, ptr %2, align 8
  ret i64 %24
}