; Function Attrs: nounwind sspstrong uwtable
define internal i64 @etc_getlogin(i64 %0) #0 {
  %2 = tail call ptr @getlogin() #13
  %.not = icmp eq ptr %2, null
  br i1 %.not, label %3, label %.thread

3:                                                ; preds = %1
  %4 = tail call ptr @getenv(ptr noundef nonnull @.str.212) #13
  %.not7 = icmp eq ptr %4, null
  br i1 %.not7, label %8, label %.thread

.thread:                                          ; preds = %1, %3
  %.0510 = phi ptr [ %4, %3 ], [ %2, %1 ]
  %5 = tail call ptr @rb_locale_encoding() #13
  %6 = tail call i64 @strlen(ptr noundef nonnull dereferenceable(1) %.0510) #14
  %7 = tail call i64 @rb_external_str_new_with_enc(ptr noundef nonnull %.0510, i64 noundef %6, ptr noundef %5) #13
  br label %8

8:                                                ; preds = %3, %.thread
  %.0 = phi i64 [ %7, %.thread ], [ 4, %3 ]
  ret i64 %.0
}